target datalayout = "e-m:e-p270:32:32-p271:32:32-p272:64:64-i64:64-i128:128-f80:128-n8:16:32:64-S128"
target triple = "x86_64-pc-linux-gnu"

; Function Attrs: nounwind uwtable
define internal i32 @crl_extension_match(ptr noundef %0, ptr noundef %1, i32 noundef %2) #0 {
  %4 = alloca i32, align 4
  %5 = alloca ptr, align 8
  %6 = alloca ptr, align 8
  %7 = alloca i32, align 4
  %8 = alloca ptr, align 8
  %9 = alloca ptr, align 8
  %10 = alloca i32, align 4
  %11 = alloca i32, align 4
  store ptr %0, ptr %5, align 8, !tbaa !101
  store ptr %1, ptr %6, align 8, !tbaa !101
  store i32 %2, ptr %7, align 4, !tbaa !13
  call void @llvm.lifetime.start.p0(i64 8, ptr %8) #8
  call void @llvm.lifetime.start.p0(i64 8, ptr %9) #8
  call void @llvm.lifetime.start.p0(i64 4, ptr %10) #8
  %12 = load ptr, ptr %5, align 8, !tbaa !101
  %13 = load i32, ptr %7, align 4, !tbaa !13
  %14 = call i32 @X509_CRL_get_ext_by_NID(ptr noundef %12, i32 noundef %13, i32 noundef -1)
  store i32 %14, ptr %10, align 4, !tbaa !13
  %15 = load i32, ptr %10, align 4, !tbaa !13
  %16 = icmp sge i32 %15, 0
  br i1 %16, label %17, label %29

17:                                               ; preds = %3
  %18 = load ptr, ptr %5, align 8, !tbaa !101
  %19 = load i32, ptr %7, align 4, !tbaa !13
  %20 = load i32, ptr %10, align 4, !tbaa !13
  %21 = call i32 @X509_CRL_get_ext_by_NID(ptr noundef %18, i32 noundef %19, i32 noundef %20)
  %22 = icmp ne i32 %21, -1
  br i1 %22, label %23, label %24

23:                                               ; preds = %17
  store i32 0, ptr %4, align 4
  store i32 1, ptr %11, align 4
  br label %70

24:                                               ; preds = %17
  %25 = load ptr, ptr %5, align 8, !tbaa !101
  %26 = load i32, ptr %10, align 4, !tbaa !13
  %27 = call ptr @X509_CRL_get_ext(ptr noundef %25, i32 noundef %26)
  %28 = call ptr @X509_EXTENSION_get_data(ptr noundef %27)
  store ptr %28, ptr %8, align 8, !tbaa !90
  br label %30

29:                                               ; preds = %3
  store ptr null, ptr %8, align 8, !tbaa !90
  br label %30

30:                                               ; preds = %29, %24
  %31 = load ptr, ptr %6, align 8, !tbaa !101
  %32 = load i32, ptr %7, align 4, !tbaa !13
  %33 = call i32 @X509_CRL_get_ext_by_NID(ptr noundef %31, i32 noundef %32, i32 noundef -1)
  store i32 %33, ptr %10, align 4, !tbaa !13
  %34 = load i32, ptr %10, align 4, !tbaa !13
  %35 = icmp sge i32 %34, 0
  br i1 %35, label %36, label %48

36:                                               ; preds = %30
  %37 = load ptr, ptr %6, align 8, !tbaa !101
  %38 = load i32, ptr %7, align 4, !tbaa !13
  %39 = load i32, ptr %10, align 4, !tbaa !13
  %40 = call i32 @X509_CRL_get_ext_by_NID(ptr noundef %37, i32 noundef %38, i32 noundef %39)
  %41 = icmp ne i32 %40, -1
  br i1 %41, label %42, label %43

42:                                               ; preds = %36
  store i32 0, ptr %4, align 4
  store i32 1, ptr %11, align 4
  br label %70

43:                                               ; preds = %36
  %44 = load ptr, ptr %6, align 8, !tbaa !101
  %45 = load i32, ptr %10, align 4, !tbaa !13
  %46 = call ptr @X509_CRL_get_ext(ptr noundef %44, i32 noundef %45)
  %47 = call ptr @X509_EXTENSION_get_data(ptr noundef %46)
  store ptr %47, ptr %9, align 8, !tbaa !90
  br label %49

48:                                               ; preds = %30
  store ptr null, ptr %9, align 8, !tbaa !90
  br label %49

49:                                               ; preds = %48, %43
  %50 = load ptr, ptr %8, align 8, !tbaa !90
  %51 = icmp ne ptr %50, null
  br i1 %51, label %56, label %52

52:                                               ; preds = %49
  %53 = load ptr, ptr %9, align 8, !tbaa !90
  %54 = icmp ne ptr %53, null
  br i1 %54, label %56, label %55

55:                                               ; preds = %52
  store i32 1, ptr %4, align 4
  store i32 1, ptr %11, align 4
  br label %70

56:                                               ; preds = %52, %49
  %57 = load ptr, ptr %8, align 8, !tbaa !90
  %58 = icmp ne ptr %57, null
  br i1 %58, label %59, label %62

59:                                               ; preds = %56
  %60 = load ptr, ptr %9, align 8, !tbaa !90
  %61 = icmp ne ptr %60, null
  br i1 %61, label %63, label %62

62:                                               ; preds = %59, %56
  store i32 0, ptr %4, align 4
  store i32 1, ptr %11, align 4
  br label %70

63:                                               ; preds = %59
  %64 = load ptr, ptr %8, align 8, !tbaa !90
  %65 = load ptr, ptr %9, align 8, !tbaa !90
  %66 = call i32 @ASN1_OCTET_STRING_cmp(ptr noundef %64, ptr noundef %65)
  %67 = icmp ne i32 %66, 0
  br i1 %67, label %68, label %69

68:                                               ; preds = %63
  store i32 0, ptr %4, align 4
  store i32 1, ptr %11, align 4
  br label %70

69:                                               ; preds = %63
  store i32 1, ptr %4, align 4
  store i32 1, ptr %11, align 4
  br label %70

70:                                               ; preds = %69, %68, %62, %55, %42, %23
  call void @llvm.lifetime.end.p0(i64 4, ptr %10) #8
  call void @llvm.lifetime.end.p0(i64 8, ptr %9) #8
  call void @llvm.lifetime.end.p0(i64 8, ptr %8) #8
  %71 = load i32, ptr %4, align 4
  ret i32 %71
}