; Function Attrs: nounwind uwtable
define internal fastcc range(i32 0, 2) i32 @crl_extension_match(ptr noundef %0, ptr noundef %1, i32 noundef range(i32 90, 771) %2) unnamed_addr #0 {
  %4 = tail call i32 @X509_CRL_get_ext_by_NID(ptr noundef %0, i32 noundef %2, i32 noundef -1) #14
  %5 = icmp sgt i32 %4, -1
  br i1 %5, label %6, label %11

6:                                                ; preds = %3
  %7 = tail call i32 @X509_CRL_get_ext_by_NID(ptr noundef %0, i32 noundef %2, i32 noundef %4) #14
  %.not = icmp eq i32 %7, -1
  br i1 %.not, label %8, label %25

8:                                                ; preds = %6
  %9 = tail call ptr @X509_CRL_get_ext(ptr noundef %0, i32 noundef %4) #14
  %10 = tail call ptr @X509_EXTENSION_get_data(ptr noundef %9) #14
  br label %11

11:                                               ; preds = %3, %8
  %.025 = phi ptr [ %10, %8 ], [ null, %3 ]
  %12 = tail call i32 @X509_CRL_get_ext_by_NID(ptr noundef %1, i32 noundef %2, i32 noundef -1) #14
  %13 = icmp sgt i32 %12, -1
  br i1 %13, label %14, label %19

14:                                               ; preds = %11
  %15 = tail call i32 @X509_CRL_get_ext_by_NID(ptr noundef %1, i32 noundef %2, i32 noundef %12) #14
  %.not29 = icmp eq i32 %15, -1
  br i1 %.not29, label %16, label %25

16:                                               ; preds = %14
  %17 = tail call ptr @X509_CRL_get_ext(ptr noundef %1, i32 noundef %12) #14
  %18 = tail call ptr @X509_EXTENSION_get_data(ptr noundef %17) #14
  br label %19

19:                                               ; preds = %11, %16
  %.0 = phi ptr [ %18, %16 ], [ null, %11 ]
  %20 = icmp ne ptr %.025, null
  %21 = icmp ne ptr %.0, null
  %or.cond = select i1 %20, i1 true, i1 %21
  br i1 %or.cond, label %22, label %25

22:                                               ; preds = %19
  %or.cond3 = select i1 %20, i1 %21, i1 false
  br i1 %or.cond3, label %23, label %25

23:                                               ; preds = %22
  %24 = tail call i32 @ASN1_OCTET_STRING_cmp(ptr noundef nonnull %.025, ptr noundef nonnull %.0) #14
  %.not30 = icmp eq i32 %24, 0
  %. = zext i1 %.not30 to i32
  br label %25

25:                                               ; preds = %23, %22, %19, %14, %6
  %.026 = phi i32 [ 0, %6 ], [ 0, %14 ], [ 1, %19 ], [ 0, %22 ], [ %., %23 ]
  ret i32 %.026
}